target datalayout = "e-m:e-p270:32:32-p271:32:32-p272:64:64-i64:64-i128:128-f80:128-n8:16:32:64-S128"
target triple = "x86_64-pc-linux-gnu"

%struct._dcerpc_info = type { ptr, i32, i64, i8, i8, i8, i32, i32, i32, i32, i32, i32, i32, i32, ptr, ptr, ptr, ptr, %struct.anon }
%struct.anon = type { i8, ptr, ptr, ptr, i8 }
%struct._packet_info = type { ptr, ptr, i32, i32, %struct.nstime_t, %struct.nstime_t, %struct.nstime_t, i8, ptr, ptr, ptr, ptr, %struct._address, %struct._address, %struct._address, %struct._address, %struct._address, %struct._address, i32, ptr, i8, [3 x i8], %struct.anon.0, i32, i32, i32, i32, ptr, i8, ptr, ptr, i16, i16, i32, i32, i16, i32, i32, ptr, ptr, ptr, i8, i8, i16, i16, i16, i32, i16, i16, ptr, ptr, ptr, ptr, ptr, i32, i32 }
%struct.nstime_t = type { i64, i32 }
%struct._address = type { i32, i32, ptr, ptr }
%struct.anon.0 = type { i8, [3 x i8] }

@hf_sec_rgy_domain_t = internal global i32 0, align 4
@ett_sec_rgy_domain_t = internal global i32 0, align 4
@.str.49 = private unnamed_addr constant [17 x i8] c"sec_rgy_domain_t\00", align 1
@.str.50 = private unnamed_addr constant [21 x i8] c" sec_rgy_domain_t:%u\00", align 1

; Function Attrs: null_pointer_is_valid sspstrong uwtable
define internal i32 @dissect_sec_rgy_domain_t(ptr noundef %0, i32 noundef %1, ptr noundef %2, ptr noundef %3, ptr noundef %4, ptr noundef %5) #0 {
  %7 = alloca i32, align 4
  %8 = alloca ptr, align 8
  %9 = alloca i32, align 4
  %10 = alloca ptr, align 8
  %11 = alloca ptr, align 8
  %12 = alloca ptr, align 8
  %13 = alloca ptr, align 8
  %14 = alloca ptr, align 8
  %15 = alloca ptr, align 8
  %16 = alloca i32, align 4
  %17 = alloca i32, align 4
  %18 = alloca i32, align 4
  store ptr %0, ptr %8, align 8
  store i32 %1, ptr %9, align 4
  store ptr %2, ptr %10, align 8
  store ptr %3, ptr %11, align 8
  store ptr %4, ptr %12, align 8
  store ptr %5, ptr %13, align 8
  call void @llvm.lifetime.start.p0(i64 8, ptr %14) #3
  store ptr null, ptr %14, align 8
  call void @llvm.lifetime.start.p0(i64 8, ptr %15) #3
  store ptr null, ptr %15, align 8
  call void @llvm.lifetime.start.p0(i64 4, ptr %16) #3
  %19 = load i32, ptr %9, align 4
  store i32 %19, ptr %16, align 4
  call void @llvm.lifetime.start.p0(i64 4, ptr %17) #3
  %20 = load ptr, ptr %12, align 8
  %21 = getelementptr inbounds nuw %struct._dcerpc_info, ptr %20, i32 0, i32 4
  %22 = load i8, ptr %21, align 1, !range !6, !noundef !7
  %23 = trunc i8 %22 to i1
  br i1 %23, label %24, label %26

24:                                               ; preds = %6
  %25 = load i32, ptr %9, align 4
  store i32 %25, ptr %7, align 4
  store i32 1, ptr %18, align 4
  br label %53

26:                                               ; preds = %6
  %27 = load ptr, ptr %11, align 8
  %28 = icmp ne ptr %27, null
  br i1 %28, label %29, label %35

29:                                               ; preds = %26
  %30 = load ptr, ptr %11, align 8
  %31 = load ptr, ptr %8, align 8
  %32 = load i32, ptr %9, align 4
  %33 = load i32, ptr @ett_sec_rgy_domain_t, align 4
  %34 = call ptr @proto_tree_add_subtree(ptr noundef %30, ptr noundef %31, i32 noundef %32, i32 noundef -1, i32 noundef %33, ptr noundef %14, ptr noundef @.str.49)
  store ptr %34, ptr %15, align 8
  br label %35

35:                                               ; preds = %29, %26
  %36 = load ptr, ptr %8, align 8
  %37 = load i32, ptr %9, align 4
  %38 = load ptr, ptr %10, align 8
  %39 = load ptr, ptr %15, align 8
  %40 = load ptr, ptr %12, align 8
  %41 = load ptr, ptr %13, align 8
  %42 = load i32, ptr @hf_sec_rgy_domain_t, align 4
  %43 = call i32 @dissect_ndr_uint32(ptr noundef %36, i32 noundef %37, ptr noundef %38, ptr noundef %39, ptr noundef %40, ptr noundef %41, i32 noundef %42, ptr noundef %17)
  store i32 %43, ptr %9, align 4
  %44 = load ptr, ptr %10, align 8
  %45 = getelementptr inbounds nuw %struct._packet_info, ptr %44, i32 0, i32 1
  %46 = load ptr, ptr %45, align 8
  %47 = load i32, ptr %17, align 4
  call void (ptr, i32, ptr, ...) @col_append_fstr(ptr noundef %46, i32 noundef 25, ptr noundef @.str.50, i32 noundef %47)
  %48 = load ptr, ptr %14, align 8
  %49 = load i32, ptr %9, align 4
  %50 = load i32, ptr %16, align 4
  %51 = sub i32 %49, %50
  call void @proto_item_set_len(ptr noundef %48, i32 noundef %51)
  %52 = load i32, ptr %9, align 4
  store i32 %52, ptr %7, align 4
  store i32 1, ptr %18, align 4
  br label %53

53:                                               ; preds = %35, %24
  call void @llvm.lifetime.end.p0(i64 4, ptr %17) #3
  call void @llvm.lifetime.end.p0(i64 4, ptr %16) #3
  call void @llvm.lifetime.end.p0(i64 8, ptr %15) #3
  call void @llvm.lifetime.end.p0(i64 8, ptr %14) #3
  %54 = load i32, ptr %7, align 4
  ret i32 %54
}

; Function Attrs: null_pointer_is_valid sspstrong uwtable
define internal i32 @rs_pgo_dissect_delete_rqst(ptr noundef %0, i32 noundef %1, ptr noundef %2, ptr noundef %3, ptr noundef %4, ptr noundef %5) #0 {
  %7 = alloca i32, align 4
  %8 = alloca ptr, align 8
  %9 = alloca i32, align 4
  %10 = alloca ptr, align 8
  %11 = alloca ptr, align 8
  %12 = alloca ptr, align 8
  %13 = alloca ptr, align 8
  store ptr %0, ptr %8, align 8
  store i32 %1, ptr %9, align 4
  store ptr %2, ptr %10, align 8
  store ptr %3, ptr %11, align 8
  store ptr %4, ptr %12, align 8
  store ptr %5, ptr %13, align 8
  %14 = load ptr, ptr %12, align 8
  %15 = getelementptr inbounds nuw %struct._dcerpc_info, ptr %14, i32 0, i32 4
  %16 = load i8, ptr %15, align 1, !range !6, !noundef !7
  %17 = trunc i8 %16 to i1
  br i1 %17, label %18, label %20

18:                                               ; preds = %6
  %19 = load i32, ptr %9, align 4
  store i32 %19, ptr %7, align 4
  br label %36

20:                                               ; preds = %6
  %21 = load ptr, ptr %8, align 8
  %22 = load i32, ptr %9, align 4
  %23 = load ptr, ptr %10, align 8
  %24 = load ptr, ptr %11, align 8
  %25 = load ptr, ptr %12, align 8
  %26 = load ptr, ptr %13, align 8
  %27 = call i32 @dissect_sec_rgy_domain_t(ptr noundef %21, i32 noundef %22, ptr noundef %23, ptr noundef %24, ptr noundef %25, ptr noundef %26)
  store i32 %27, ptr %9, align 4
  %28 = load ptr, ptr %8, align 8
  %29 = load i32, ptr %9, align 4
  %30 = load ptr, ptr %10, align 8
  %31 = load ptr, ptr %11, align 8
  %32 = load ptr, ptr %12, align 8
  %33 = load ptr, ptr %13, align 8
  %34 = call i32 @dissect_sec_rgy_name_t(ptr noundef %28, i32 noundef %29, ptr noundef %30, ptr noundef %31, ptr noundef %32, ptr noundef %33)
  store i32 %34, ptr %9, align 4
  %35 = load i32, ptr %9, align 4
  store i32 %35, ptr %7, align 4
  br label %36

36:                                               ; preds = %20, %18
  %37 = load i32, ptr %7, align 4
  ret i32 %37
}