; Function Attrs: null_pointer_is_valid sspstrong uwtable
define internal i32 @rs_pgo_dissect_delete_rqst(ptr noundef %0, i32 noundef %1, ptr noundef %2, ptr noundef %3, ptr noundef %4, ptr noundef %5) #0 {
  %7 = alloca ptr, align 8
  %8 = alloca i32, align 4
  %9 = getelementptr inbounds nuw i8, ptr %4, i64 25
  %10 = load i8, ptr %9, align 1, !range !6, !noundef !7
  %11 = trunc nuw i8 %10 to i1
  br i1 %11, label %24, label %12

12:                                               ; preds = %6
  call void @llvm.lifetime.start.p0(i64 8, ptr nonnull %7) #3
  store ptr null, ptr %7, align 8
  call void @llvm.lifetime.start.p0(i64 4, ptr nonnull %8) #3
  %.not.i = icmp eq ptr %3, null
  br i1 %.not.i, label %dissect_sec_rgy_domain_t.exit, label %13

13:                                               ; preds = %12
  %14 = load i32, ptr @ett_sec_rgy_domain_t, align 4
  %15 = call ptr @proto_tree_add_subtree(ptr noundef nonnull %3, ptr noundef %0, i32 noundef %1, i32 noundef -1, i32 noundef %14, ptr noundef nonnull %7, ptr noundef nonnull @.str.49)
  br label %dissect_sec_rgy_domain_t.exit

dissect_sec_rgy_domain_t.exit:                    ; preds = %12, %13
  %.017.i = phi ptr [ %15, %13 ], [ null, %12 ]
  %16 = load i32, ptr @hf_sec_rgy_domain_t, align 4
  %17 = call i32 @dissect_ndr_uint32(ptr noundef %0, i32 noundef %1, ptr noundef %2, ptr noundef %.017.i, ptr noundef %4, ptr noundef %5, i32 noundef %16, ptr noundef nonnull %8)
  %18 = getelementptr inbounds nuw i8, ptr %2, i64 8
  %19 = load ptr, ptr %18, align 8
  %20 = load i32, ptr %8, align 4
  call void (ptr, i32, ptr, ...) @col_append_fstr(ptr noundef %19, i32 noundef 25, ptr noundef nonnull @.str.50, i32 noundef %20)
  %21 = load ptr, ptr %7, align 8
  %22 = sub i32 %17, %1
  call void @proto_item_set_len(ptr noundef %21, i32 noundef %22)
  call void @llvm.lifetime.end.p0(i64 4, ptr nonnull %8) #3
  call void @llvm.lifetime.end.p0(i64 8, ptr nonnull %7) #3
  %23 = call fastcc i32 @dissect_sec_rgy_name_t(ptr noundef %0, i32 noundef %17, ptr noundef %2, ptr noundef %3, ptr noundef %4, ptr noundef %5)
  br label %24

24:                                               ; preds = %6, %dissect_sec_rgy_domain_t.exit
  %.0 = phi i32 [ %23, %dissect_sec_rgy_domain_t.exit ], [ %1, %6 ]
  ret i32 %.0
}